target datalayout = "e-m:e-p270:32:32-p271:32:32-p272:64:64-i64:64-i128:128-f80:128-n8:16:32:64-S128"
target triple = "x86_64-pc-linux-gnu"

%struct.slurm_cred_t = type { i32, %union.pthread_rwlock_t, ptr, i32, i16, ptr, i64, ptr, i8 }
%union.pthread_rwlock_t = type { %struct.__pthread_rwlock_arch_t }
%struct.__pthread_rwlock_arch_t = type { i32, i32, i32, i32, i32, i32, i32, i32, i8, [7 x i8], i64, i32 }

@.str.17 = private unnamed_addr constant [32 x i8] c"%s: pthread_rwlock_unlock(): %m\00", align 1
@.str.18 = private unnamed_addr constant [32 x i8] c"%s: pthread_rwlock_rdlock(): %m\00", align 1
@__func__.slurm_cred_get_signature = private unnamed_addr constant [25 x i8] c"slurm_cred_get_signature\00", align 1

; Function Attrs: nounwind uwtable
define dso_local ptr @slurm_cred_get_signature(ptr noundef %0) #0 {
  %2 = alloca ptr, align 8
  %3 = alloca ptr, align 8
  %4 = alloca i32, align 4
  %5 = alloca i32, align 4
  store ptr %0, ptr %2, align 8
  call void @llvm.lifetime.start.p0(i64 8, ptr %3) #9
  store ptr null, ptr %3, align 8
  br label %6

6:                                                ; preds = %1
  call void @llvm.lifetime.start.p0(i64 4, ptr %4) #9
  %7 = load ptr, ptr %2, align 8
  %8 = getelementptr inbounds nuw %struct.slurm_cred_t, ptr %7, i32 0, i32 1
  %9 = call i32 @pthread_rwlock_rdlock(ptr noundef %8) #9
  store i32 %9, ptr %4, align 4
  %10 = load i32, ptr %4, align 4
  %11 = icmp ne i32 %10, 0
  br i1 %11, label %12, label %15

12:                                               ; preds = %6
  %13 = load i32, ptr %4, align 4
  %14 = call ptr @__errno_location() #11
  store i32 %13, ptr %14, align 4
  call void (ptr, ...) @fatal_abort(ptr noundef @.str.18, ptr noundef @__func__.slurm_cred_get_signature) #12
  unreachable

15:                                               ; preds = %6
  call void @llvm.lifetime.end.p0(i64 4, ptr %4) #9
  br label %16

16:                                               ; preds = %15
  br label %17

17:                                               ; preds = %16
  %18 = load ptr, ptr %2, align 8
  %19 = getelementptr inbounds nuw %struct.slurm_cred_t, ptr %18, i32 0, i32 7
  %20 = load ptr, ptr %19, align 8
  %21 = call ptr @xstrdup(ptr noundef %20)
  store ptr %21, ptr %3, align 8
  br label %22

22:                                               ; preds = %17
  call void @llvm.lifetime.start.p0(i64 4, ptr %5) #9
  %23 = load ptr, ptr %2, align 8
  %24 = getelementptr inbounds nuw %struct.slurm_cred_t, ptr %23, i32 0, i32 1
  %25 = call i32 @pthread_rwlock_unlock(ptr noundef %24) #9
  store i32 %25, ptr %5, align 4
  %26 = load i32, ptr %5, align 4
  %27 = icmp ne i32 %26, 0
  br i1 %27, label %28, label %31

28:                                               ; preds = %22
  %29 = load i32, ptr %5, align 4
  %30 = call ptr @__errno_location() #11
  store i32 %29, ptr %30, align 4
  call void (ptr, ...) @fatal_abort(ptr noundef @.str.17, ptr noundef @__func__.slurm_cred_get_signature) #12
  unreachable

31:                                               ; preds = %22
  call void @llvm.lifetime.end.p0(i64 4, ptr %5) #9
  br label %32

32:                                               ; preds = %31
  br label %33

33:                                               ; preds = %32
  %34 = load ptr, ptr %3, align 8
  call void @llvm.lifetime.end.p0(i64 8, ptr %3) #9
  ret ptr %34
}