; Function Attrs: nounwind uwtable
define dso_local ptr @slurm_cred_get_signature(ptr noundef %0) local_unnamed_addr #0 {
  %2 = getelementptr inbounds nuw i8, ptr %0, i64 8
  %3 = tail call i32 @pthread_rwlock_rdlock(ptr noundef nonnull %2) #11
  %.not = icmp eq i32 %3, 0
  br i1 %.not, label %6, label %4

4:                                                ; preds = %1
  %5 = tail call ptr @__errno_location() #12
  store i32 %3, ptr %5, align 4
  tail call void (ptr, ...) @fatal_abort(ptr noundef nonnull @.str.18, ptr noundef nonnull @__func__.slurm_cred_get_signature) #13
  unreachable

6:                                                ; preds = %1
  %7 = getelementptr inbounds nuw i8, ptr %0, i64 96
  %8 = load ptr, ptr %7, align 8
  %9 = tail call ptr @xstrdup(ptr noundef %8) #11
  %10 = tail call i32 @pthread_rwlock_unlock(ptr noundef nonnull %2) #11
  %.not8 = icmp eq i32 %10, 0
  br i1 %.not8, label %13, label %11

11:                                               ; preds = %6
  %12 = tail call ptr @__errno_location() #12
  store i32 %10, ptr %12, align 4
  tail call void (ptr, ...) @fatal_abort(ptr noundef nonnull @.str.17, ptr noundef nonnull @__func__.slurm_cred_get_signature) #13
  unreachable

13:                                               ; preds = %6
  ret ptr %9
}